target datalayout = "e-m:e-p270:32:32-p271:32:32-p272:64:64-i64:64-i128:128-f80:128-n8:16:32:64-S128"
target triple = "x86_64-pc-linux-gnu"

%struct.Nwk_Obj_t_ = type { ptr, ptr, ptr, %union.anon, i32, i32, i32, i32, float, float, float, i32, i32, i32, ptr }
%union.anon = type { ptr }

; Function Attrs: nounwind uwtable
define void @Nwk_ManUpdate(ptr noundef %0, ptr noundef %1, ptr noundef %2) #0 {
  %4 = alloca ptr, align 8
  %5 = alloca ptr, align 8
  %6 = alloca ptr, align 8
  store ptr %0, ptr %4, align 8, !tbaa !18
  store ptr %1, ptr %5, align 8, !tbaa !18
  store ptr %2, ptr %6, align 8, !tbaa !95
  %7 = load ptr, ptr %4, align 8, !tbaa !18
  %8 = load ptr, ptr %5, align 8, !tbaa !18
  call void @Nwk_ObjTransferFanout(ptr noundef %7, ptr noundef %8)
  %9 = load ptr, ptr %4, align 8, !tbaa !18
  %10 = getelementptr inbounds nuw %struct.Nwk_Obj_t_, ptr %9, i32 0, i32 7
  %11 = load i32, ptr %10, align 4, !tbaa !78
  %12 = load ptr, ptr %5, align 8, !tbaa !18
  %13 = getelementptr inbounds nuw %struct.Nwk_Obj_t_, ptr %12, i32 0, i32 7
  store i32 %11, ptr %13, align 4, !tbaa !78
  %14 = load ptr, ptr %4, align 8, !tbaa !18
  %15 = getelementptr inbounds nuw %struct.Nwk_Obj_t_, ptr %14, i32 0, i32 8
  %16 = load float, ptr %15, align 8, !tbaa !25
  %17 = load ptr, ptr %5, align 8, !tbaa !18
  %18 = getelementptr inbounds nuw %struct.Nwk_Obj_t_, ptr %17, i32 0, i32 8
  store float %16, ptr %18, align 8, !tbaa !25
  %19 = load ptr, ptr %4, align 8, !tbaa !18
  %20 = getelementptr inbounds nuw %struct.Nwk_Obj_t_, ptr %19, i32 0, i32 9
  %21 = load float, ptr %20, align 4, !tbaa !26
  %22 = load ptr, ptr %5, align 8, !tbaa !18
  %23 = getelementptr inbounds nuw %struct.Nwk_Obj_t_, ptr %22, i32 0, i32 9
  store float %21, ptr %23, align 4, !tbaa !26
  %24 = load ptr, ptr %4, align 8, !tbaa !18
  %25 = getelementptr inbounds nuw %struct.Nwk_Obj_t_, ptr %24, i32 0, i32 9
  store float 1.000000e+09, ptr %25, align 4, !tbaa !26
  %26 = load ptr, ptr %4, align 8, !tbaa !18
  call void @Nwk_NodeUpdateRequired(ptr noundef %26)
  %27 = load ptr, ptr %4, align 8, !tbaa !18
  call void @Nwk_ManDeleteNode_rec(ptr noundef %27)
  %28 = load ptr, ptr %5, align 8, !tbaa !18
  call void @Nwk_ManUpdateLevel(ptr noundef %28)
  %29 = load ptr, ptr %5, align 8, !tbaa !18
  call void @Nwk_NodeUpdateArrival(ptr noundef %29)
  %30 = load ptr, ptr %5, align 8, !tbaa !18
  call void @Nwk_NodeUpdateRequired(ptr noundef %30)
  ret void
}