; Function Attrs: nounwind uwtable
define void @Nwk_ManUpdate(ptr noundef %0, ptr noundef %1, ptr noundef readnone captures(none) %2) local_unnamed_addr #4 {
  tail call void @Nwk_ObjTransferFanout(ptr noundef %0, ptr noundef %1) #12
  %4 = getelementptr inbounds nuw i8, ptr %0, i64 44
  %5 = load i32, ptr %4, align 4, !tbaa !68
  %6 = getelementptr inbounds nuw i8, ptr %1, i64 44
  store i32 %5, ptr %6, align 4, !tbaa !68
  %7 = getelementptr inbounds nuw i8, ptr %0, i64 48
  %8 = load float, ptr %7, align 8, !tbaa !25
  %9 = getelementptr inbounds nuw i8, ptr %1, i64 48
  store float %8, ptr %9, align 8, !tbaa !25
  %10 = getelementptr inbounds nuw i8, ptr %0, i64 52
  %11 = load float, ptr %10, align 4, !tbaa !26
  %12 = getelementptr inbounds nuw i8, ptr %1, i64 52
  store float %11, ptr %12, align 4, !tbaa !26
  store float 1.000000e+09, ptr %10, align 4, !tbaa !26
  tail call void @Nwk_NodeUpdateRequired(ptr noundef %0)
  tail call void @Nwk_ManDeleteNode_rec(ptr noundef %0) #12
  tail call void @Nwk_ManUpdateLevel(ptr noundef %1)
  tail call void @Nwk_NodeUpdateArrival(ptr noundef %1)
  tail call void @Nwk_NodeUpdateRequired(ptr noundef %1)
  ret void
}